target datalayout = "e-m:e-p270:32:32-p271:32:32-p272:64:64-i64:64-i128:128-f80:128-n8:16:32:64-S128"
target triple = "x86_64-pc-linux-gnu"

%struct.strbuf = type { i64, i64, ptr }

@.str.75 = private unnamed_addr constant [1 x i8] zeroinitializer, align 1
@git_gettext_enabled = external global i32, align 4
@.str.138 = private unnamed_addr constant [2 x i8] c"w\00", align 1
@.str.181 = private unnamed_addr constant [25 x i8] c"GIT_TEST_MAINT_SCHEDULER\00", align 1
@get_extra_config_parameters.result = internal global ptr null, align 8
@__const.get_extra_config_parameters.builder = private unnamed_addr constant %struct.strbuf { i64 0, i64 0, ptr @strbuf_slopbuf }, align 8
@extraconfig = internal global [3 x ptr] [ptr @.str.207, ptr @.str.208, ptr null], align 16
@.str.206 = private unnamed_addr constant [7 x i8] c"-c %s \00", align 1
@.str.209 = private unnamed_addr constant [22 x i8] c"git-maintenance@%s.%s\00", align 1
@.str.210 = private unnamed_addr constant [8 x i8] c"service\00", align 1
@.str.211 = private unnamed_addr constant [38 x i8] c"failed to create directories for '%s'\00", align 1
@.str.213 = private unnamed_addr constant [24 x i8] c"failed to write to '%s'\00", align 1
@.str.214 = private unnamed_addr constant [21 x i8] c"failed to flush '%s'\00", align 1
@.str.215 = private unnamed_addr constant [13 x i8] c"systemd/user\00", align 1

; Function Attrs: nounwind uwtable
define internal ptr @get_extra_config_parameters() #0 {
  %1 = alloca ptr, align 8
  %2 = alloca %struct.strbuf, align 8
  %3 = alloca i32, align 4
  %4 = alloca ptr, align 8
  call void @llvm.lifetime.start.p0(i64 24, ptr %2) #11
  call void @llvm.memcpy.p0.p0.i64(ptr align 8 %2, ptr align 8 @__const.get_extra_config_parameters.builder, i64 24, i1 false)
  %5 = load ptr, ptr @get_extra_config_parameters.result, align 8, !tbaa !11
  %6 = icmp ne ptr %5, null
  br i1 %6, label %7, label %9

7:                                                ; preds = %0
  %8 = load ptr, ptr @get_extra_config_parameters.result, align 8, !tbaa !11
  store ptr %8, ptr %1, align 8
  store i32 1, ptr %3, align 4
  br label %29

9:                                                ; preds = %0
  call void @llvm.lifetime.start.p0(i64 8, ptr %4) #11
  store ptr @extraconfig, ptr %4, align 8, !tbaa !8
  br label %10

10:                                               ; preds = %23, %9
  %11 = load ptr, ptr %4, align 8, !tbaa !8
  %12 = icmp ne ptr %11, null
  br i1 %12, label %13, label %17

13:                                               ; preds = %10
  %14 = load ptr, ptr %4, align 8, !tbaa !8
  %15 = load ptr, ptr %14, align 8, !tbaa !11
  %16 = icmp ne ptr %15, null
  br label %17

17:                                               ; preds = %13, %10
  %18 = phi i1 [ false, %10 ], [ %16, %13 ]
  br i1 %18, label %20, label %19

19:                                               ; preds = %17
  store i32 2, ptr %3, align 4
  call void @llvm.lifetime.end.p0(i64 8, ptr %4) #11
  br label %26

20:                                               ; preds = %17
  %21 = load ptr, ptr %4, align 8, !tbaa !8
  %22 = load ptr, ptr %21, align 8, !tbaa !11
  call void (ptr, ptr, ...) @strbuf_addf(ptr noundef %2, ptr noundef @.str.206, ptr noundef %22)
  br label %23

23:                                               ; preds = %20
  %24 = load ptr, ptr %4, align 8, !tbaa !8
  %25 = getelementptr inbounds nuw ptr, ptr %24, i32 1
  store ptr %25, ptr %4, align 8, !tbaa !8
  br label %10, !llvm.loop !217

26:                                               ; preds = %19
  %27 = call ptr @strbuf_detach(ptr noundef %2, ptr noundef null)
  store ptr %27, ptr @get_extra_config_parameters.result, align 8, !tbaa !11
  %28 = load ptr, ptr @get_extra_config_parameters.result, align 8, !tbaa !11
  store ptr %28, ptr %1, align 8
  store i32 1, ptr %3, align 4
  br label %29

29:                                               ; preds = %26, %7
  call void @llvm.lifetime.end.p0(i64 24, ptr %2) #11
  %30 = load ptr, ptr %1, align 8
  ret ptr %30
}

; Function Attrs: inlinehint nounwind uwtable
define internal i32 @const_error() #6 {
  ret i32 -1
}

; Function Attrs: inlinehint nounwind uwtable
define internal ptr @_(ptr noundef %0) #6 {
  %2 = alloca ptr, align 8
  %3 = alloca ptr, align 8
  store ptr %0, ptr %3, align 8, !tbaa !11
  %4 = load ptr, ptr %3, align 8, !tbaa !11
  %5 = load i8, ptr %4, align 1, !tbaa !93
  %6 = icmp ne i8 %5, 0
  br i1 %6, label %8, label %7

7:                                                ; preds = %1
  store ptr @.str.75, ptr %2, align 8
  br label %16

8:                                                ; preds = %1
  %9 = load i32, ptr @git_gettext_enabled, align 4, !tbaa !4
  %10 = icmp ne i32 %9, 0
  br i1 %10, label %13, label %11

11:                                               ; preds = %8
  %12 = load ptr, ptr %3, align 8, !tbaa !11
  store ptr %12, ptr %2, align 8
  br label %16

13:                                               ; preds = %8
  %14 = load ptr, ptr %3, align 8, !tbaa !11
  %15 = call ptr @dcgettext(ptr noundef null, ptr noundef %14, i32 noundef 5) #11
  store ptr %15, ptr %2, align 8
  br label %16

16:                                               ; preds = %13, %11, %7
  %17 = load ptr, ptr %2, align 8
  ret ptr %17
}

; Function Attrs: nounwind uwtable
define internal ptr @xdg_config_home_systemd(ptr noundef %0) #0 {
  %2 = alloca ptr, align 8
  store ptr %0, ptr %2, align 8, !tbaa !11
  %3 = load ptr, ptr %2, align 8, !tbaa !11
  %4 = call ptr @xdg_config_home_for(ptr noundef @.str.215, ptr noundef %3)
  ret ptr %4
}

; Function Attrs: nounwind uwtable
define internal i32 @systemd_timer_write_service_template(ptr noundef %0) #0 {
  %2 = alloca ptr, align 8
  %3 = alloca i32, align 4
  %4 = alloca ptr, align 8
  %5 = alloca ptr, align 8
  %6 = alloca ptr, align 8
  %7 = alloca ptr, align 8
  store ptr %0, ptr %2, align 8, !tbaa !11
  call void @llvm.lifetime.start.p0(i64 4, ptr %3) #11
  store i32 -1, ptr %3, align 4, !tbaa !4
  call void @llvm.lifetime.start.p0(i64 8, ptr %4) #11
  call void @llvm.lifetime.start.p0(i64 8, ptr %5) #11
  call void @llvm.lifetime.start.p0(i64 8, ptr %6) #11
  call void @llvm.lifetime.start.p0(i64 8, ptr %7) #11
  %8 = call ptr (ptr, ...) @xstrfmt(ptr noundef @.str.209, ptr noundef @.str.75, ptr noundef @.str.210)
  store ptr %8, ptr %7, align 8, !tbaa !11
  %9 = load ptr, ptr %7, align 8, !tbaa !11
  %10 = call ptr @xdg_config_home_systemd(ptr noundef %9)
  store ptr %10, ptr %4, align 8, !tbaa !11
  %11 = load ptr, ptr %4, align 8, !tbaa !11
  %12 = call i32 @safe_create_leading_directories(ptr noundef %11)
  %13 = icmp ne i32 %12, 0
  br i1 %13, label %14, label %19

14:                                               ; preds = %1
  %15 = call ptr @_(ptr noundef @.str.211)
  %16 = load ptr, ptr %4, align 8, !tbaa !11
  %17 = call i32 (ptr, ...) @error(ptr noundef %15, ptr noundef %16)
  %18 = call i32 @const_error()
  br label %50

19:                                               ; preds = %1
  %20 = load ptr, ptr %4, align 8, !tbaa !11
  %21 = call ptr @fopen_or_warn(ptr noundef %20, ptr noundef @.str.138)
  store ptr %21, ptr %5, align 8, !tbaa !50
  %22 = load ptr, ptr %5, align 8, !tbaa !50
  %23 = icmp ne ptr %22, null
  br i1 %23, label %25, label %24

24:                                               ; preds = %19
  br label %50

25:                                               ; preds = %19
  store ptr @.str.212, ptr %6, align 8, !tbaa !11
  %26 = load ptr, ptr %5, align 8, !tbaa !50
  %27 = load ptr, ptr %6, align 8, !tbaa !11
  %28 = load ptr, ptr %2, align 8, !tbaa !11
  %29 = load ptr, ptr %2, align 8, !tbaa !11
  %30 = call ptr @get_extra_config_parameters()
  %31 = call i32 (ptr, ptr, ...) @fprintf(ptr noundef %26, ptr noundef %27, ptr noundef %28, ptr noundef %29, ptr noundef %30) #11
  %32 = icmp slt i32 %31, 0
  br i1 %32, label %33, label %40

33:                                               ; preds = %25
  %34 = call ptr @_(ptr noundef @.str.213)
  %35 = load ptr, ptr %4, align 8, !tbaa !11
  %36 = call i32 (ptr, ...) @error(ptr noundef %34, ptr noundef %35)
  %37 = call i32 @const_error()
  %38 = load ptr, ptr %5, align 8, !tbaa !50
  %39 = call i32 @fclose(ptr noundef %38)
  br label %50

40:                                               ; preds = %25
  %41 = load ptr, ptr %5, align 8, !tbaa !50
  %42 = call i32 @fclose(ptr noundef %41)
  %43 = icmp eq i32 %42, -1
  br i1 %43, label %44, label %49

44:                                               ; preds = %40
  %45 = call ptr @_(ptr noundef @.str.214)
  %46 = load ptr, ptr %4, align 8, !tbaa !11
  %47 = call i32 (ptr, ...) @error_errno(ptr noundef %45, ptr noundef %46)
  %48 = call i32 @const_error()
  br label %50

49:                                               ; preds = %40
  store i32 0, ptr %3, align 4, !tbaa !4
  br label %50

50:                                               ; preds = %49, %44, %33, %24, %14
  %51 = load ptr, ptr %7, align 8, !tbaa !11
  call void @free(ptr noundef %51) #11
  %52 = load ptr, ptr %4, align 8, !tbaa !11
  call void @free(ptr noundef %52) #11
  %53 = load i32, ptr %3, align 4, !tbaa !4
  call void @llvm.lifetime.end.p0(i64 8, ptr %7) #11
  call void @llvm.lifetime.end.p0(i64 8, ptr %6) #11
  call void @llvm.lifetime.end.p0(i64 8, ptr %5) #11
  call void @llvm.lifetime.end.p0(i64 8, ptr %4) #11
  call void @llvm.lifetime.end.p0(i64 4, ptr %3) #11
  ret i32 %53
}

; Function Attrs: nounwind uwtable
define internal i32 @get_random_minute() #0 {
  %1 = alloca i32, align 4
  %2 = call ptr @getenv(ptr noundef @.str.181) #11
  %3 = icmp ne ptr %2, null
  br i1 %3, label %4, label %5

4:                                                ; preds = %0
  store i32 13, ptr %1, align 4
  br label %8

5:                                                ; preds = %0
  %6 = call i32 @git_rand(i32 noundef 0)
  %7 = urem i32 %6, 60
  store i32 %7, ptr %1, align 4
  br label %8

8:                                                ; preds = %5, %4
  %9 = load i32, ptr %1, align 4
  ret i32 %9
}

; Function Attrs: nounwind uwtable
define internal i32 @systemd_timer_setup_units() #0 {
  %1 = alloca i32, align 4
  %2 = alloca ptr, align 8
  %3 = alloca i32, align 4
  call void @llvm.lifetime.start.p0(i64 4, ptr %1) #11
  %4 = call i32 @get_random_minute()
  store i32 %4, ptr %1, align 4, !tbaa !4
  call void @llvm.lifetime.start.p0(i64 8, ptr %2) #11
  %5 = call ptr @git_exec_path()
  store ptr %5, ptr %2, align 8, !tbaa !11
  call void @llvm.lifetime.start.p0(i64 4, ptr %3) #11
  %6 = load ptr, ptr %2, align 8, !tbaa !11
  %7 = call i32 @systemd_timer_write_service_template(ptr noundef %6)
  %8 = icmp ne i32 %7, 0
  br i1 %8, label %21, label %9

9:                                                ; preds = %0
  %10 = load i32, ptr %1, align 4, !tbaa !4
  %11 = call i32 @systemd_timer_enable_unit(i32 noundef 1, i32 noundef 3, i32 noundef %10)
  %12 = icmp ne i32 %11, 0
  br i1 %12, label %21, label %13

13:                                               ; preds = %9
  %14 = load i32, ptr %1, align 4, !tbaa !4
  %15 = call i32 @systemd_timer_enable_unit(i32 noundef 1, i32 noundef 2, i32 noundef %14)
  %16 = icmp ne i32 %15, 0
  br i1 %16, label %21, label %17

17:                                               ; preds = %13
  %18 = load i32, ptr %1, align 4, !tbaa !4
  %19 = call i32 @systemd_timer_enable_unit(i32 noundef 1, i32 noundef 1, i32 noundef %18)
  %20 = icmp ne i32 %19, 0
  br label %21

21:                                               ; preds = %17, %13, %9, %0
  %22 = phi i1 [ true, %13 ], [ true, %9 ], [ true, %0 ], [ %20, %17 ]
  %23 = zext i1 %22 to i32
  store i32 %23, ptr %3, align 4, !tbaa !4
  %24 = load i32, ptr %3, align 4, !tbaa !4
  %25 = icmp ne i32 %24, 0
  br i1 %25, label %26, label %28

26:                                               ; preds = %21
  %27 = call i32 @systemd_timer_delete_units()
  br label %29

28:                                               ; preds = %21
  call void @systemd_timer_delete_stale_timer_templates()
  br label %29

29:                                               ; preds = %28, %26
  %30 = load i32, ptr %3, align 4, !tbaa !4
  call void @llvm.lifetime.end.p0(i64 4, ptr %3) #11
  call void @llvm.lifetime.end.p0(i64 8, ptr %2) #11
  call void @llvm.lifetime.end.p0(i64 4, ptr %1) #11
  ret i32 %30
}

; Function Attrs: nounwind uwtable
define internal i32 @systemd_timer_update_schedule(i32 noundef %0, i32 noundef %1) #0 {
  %3 = alloca i32, align 4
  %4 = alloca i32, align 4
  %5 = alloca i32, align 4
  store i32 %0, ptr %4, align 4, !tbaa !4
  store i32 %1, ptr %5, align 4, !tbaa !4
  %6 = load i32, ptr %4, align 4, !tbaa !4
  %7 = icmp ne i32 %6, 0
  br i1 %7, label %8, label %10

8:                                                ; preds = %2
  %9 = call i32 @systemd_timer_setup_units()
  store i32 %9, ptr %3, align 4
  br label %12

10:                                               ; preds = %2
  %11 = call i32 @systemd_timer_delete_units()
  store i32 %11, ptr %3, align 4
  br label %12

12:                                               ; preds = %10, %8
  %13 = load i32, ptr %3, align 4
  ret i32 %13
}