; Function Attrs: nounwind uwtable
define internal i32 @systemd_timer_update_schedule(i32 noundef %0, i32 %1) #0 {
  %3 = alloca %struct.strbuf, align 8
  %.not = icmp eq i32 %0, 0
  br i1 %.not, label %49, label %4

4:                                                ; preds = %2
  %5 = tail call ptr @getenv(ptr noundef nonnull @.str.181) #21
  %.not.i.i = icmp eq ptr %5, null
  br i1 %.not.i.i, label %6, label %get_random_minute.exit.i

6:                                                ; preds = %4
  %7 = tail call i32 @git_rand(i32 noundef 0) #21
  %8 = urem i32 %7, 60
  br label %get_random_minute.exit.i

get_random_minute.exit.i:                         ; preds = %6, %4
  %.0.i.i = phi i32 [ %8, %6 ], [ 13, %4 ]
  %9 = tail call ptr @git_exec_path() #21
  %10 = tail call ptr (ptr, ...) @xstrfmt(ptr noundef nonnull @.str.209, ptr noundef nonnull @.str.75, ptr noundef nonnull @.str.210) #21
  %11 = tail call ptr @xdg_config_home_for(ptr noundef nonnull @.str.215, ptr noundef %10) #21
  %12 = tail call i32 @safe_create_leading_directories(ptr noundef %11) #21
  %.not.i7.i = icmp eq i32 %12, 0
  br i1 %.not.i7.i, label %18, label %13

13:                                               ; preds = %get_random_minute.exit.i
  %14 = load i32, ptr @git_gettext_enabled, align 4, !tbaa !4
  %.not4.i.i.i = icmp eq i32 %14, 0
  br i1 %.not4.i.i.i, label %_.exit.i.i, label %15

15:                                               ; preds = %13
  %16 = tail call ptr @dcgettext(ptr noundef null, ptr noundef nonnull @.str.211, i32 noundef 5) #21
  br label %_.exit.i.i

_.exit.i.i:                                       ; preds = %15, %13
  %.0.i.i.i = phi ptr [ %16, %15 ], [ @.str.211, %13 ]
  %17 = tail call i32 (ptr, ...) @error(ptr noundef %.0.i.i.i, ptr noundef %11) #21
  br label %.thread.critedge.i

18:                                               ; preds = %get_random_minute.exit.i
  %19 = tail call ptr @fopen_or_warn(ptr noundef %11, ptr noundef nonnull @.str.138) #21
  %.not16.i.i = icmp eq ptr %19, null
  br i1 %.not16.i.i, label %.thread.critedge.i, label %20

20:                                               ; preds = %18
  call void @llvm.lifetime.start.p0(i64 24, ptr nonnull %3) #21
  call void @llvm.memcpy.p0.p0.i64(ptr noundef nonnull align 8 dereferenceable(24) %3, ptr noundef nonnull align 8 dereferenceable(24) @__const.get_maintpath.sb, i64 24, i1 false)
  %21 = load ptr, ptr @get_extra_config_parameters.result, align 8, !tbaa !26
  %.not.i.i.i = icmp eq ptr %21, null
  br i1 %.not.i.i.i, label %.preheader.i.i.i, label %get_extra_config_parameters.exit.i.i

.critedge.i.i.i:                                  ; preds = %.preheader.i.i.i
  %22 = call ptr @strbuf_detach(ptr noundef nonnull %3, ptr noundef null) #21
  store ptr %22, ptr @get_extra_config_parameters.result, align 8, !tbaa !26
  br label %get_extra_config_parameters.exit.i.i

.preheader.i.i.i:                                 ; preds = %20, %.preheader.i.i.i
  %23 = phi ptr [ %25, %.preheader.i.i.i ], [ @.str.207, %20 ]
  %.09.i.i.i = phi ptr [ %24, %.preheader.i.i.i ], [ @extraconfig, %20 ]
  call void (ptr, ptr, ...) @strbuf_addf(ptr noundef nonnull %3, ptr noundef nonnull @.str.206, ptr noundef nonnull %23) #21
  %24 = getelementptr inbounds nuw i8, ptr %.09.i.i.i, i64 8
  %25 = load ptr, ptr %24, align 8, !tbaa !26
  %.not8.i.i.i = icmp eq ptr %25, null
  br i1 %.not8.i.i.i, label %.critedge.i.i.i, label %.preheader.i.i.i, !llvm.loop !172

get_extra_config_parameters.exit.i.i:             ; preds = %.critedge.i.i.i, %20
  %.05.i.i.i = phi ptr [ %22, %.critedge.i.i.i ], [ %21, %20 ]
  call void @llvm.lifetime.end.p0(i64 24, ptr nonnull %3) #21
  %26 = call i32 (ptr, ptr, ...) @fprintf(ptr noundef nonnull %19, ptr noundef nonnull @.str.212, ptr noundef %9, ptr noundef %9, ptr noundef %.05.i.i.i) #21
  %27 = icmp slt i32 %26, 0
  br i1 %27, label %28, label %34

28:                                               ; preds = %get_extra_config_parameters.exit.i.i
  %29 = load i32, ptr @git_gettext_enabled, align 4, !tbaa !4
  %.not4.i17.i.i = icmp eq i32 %29, 0
  br i1 %.not4.i17.i.i, label %_.exit19.i.i, label %30

30:                                               ; preds = %28
  %31 = call ptr @dcgettext(ptr noundef null, ptr noundef nonnull @.str.213, i32 noundef 5) #21
  br label %_.exit19.i.i

_.exit19.i.i:                                     ; preds = %30, %28
  %.0.i18.i.i = phi ptr [ %31, %30 ], [ @.str.213, %28 ]
  %32 = call i32 (ptr, ...) @error(ptr noundef %.0.i18.i.i, ptr noundef %11) #21
  %33 = call i32 @fclose(ptr noundef nonnull %19)
  br label %.thread.critedge.i

34:                                               ; preds = %get_extra_config_parameters.exit.i.i
  %35 = call i32 @fclose(ptr noundef nonnull %19)
  %36 = icmp eq i32 %35, -1
  br i1 %36, label %37, label %systemd_timer_write_service_template.exit.i

37:                                               ; preds = %34
  %38 = load i32, ptr @git_gettext_enabled, align 4, !tbaa !4
  %.not4.i20.i.i = icmp eq i32 %38, 0
  br i1 %.not4.i20.i.i, label %_.exit22.i.i, label %39

39:                                               ; preds = %37
  %40 = call ptr @dcgettext(ptr noundef null, ptr noundef nonnull @.str.214, i32 noundef 5) #21
  br label %_.exit22.i.i

_.exit22.i.i:                                     ; preds = %39, %37
  %.0.i21.i.i = phi ptr [ %40, %39 ], [ @.str.214, %37 ]
  %41 = call i32 (ptr, ...) @error_errno(ptr noundef %.0.i21.i.i, ptr noundef %11) #21
  br label %.thread.critedge.i

systemd_timer_write_service_template.exit.i:      ; preds = %34
  call void @free(ptr noundef %10) #21
  call void @free(ptr noundef %11) #21
  %42 = call fastcc i32 @systemd_timer_enable_unit(i32 noundef 1, i32 noundef 3, i32 noundef %.0.i.i)
  %.not5.i = icmp eq i32 %42, 0
  br i1 %.not5.i, label %43, label %.thread.i

43:                                               ; preds = %systemd_timer_write_service_template.exit.i
  %44 = call fastcc i32 @systemd_timer_enable_unit(i32 noundef 1, i32 noundef 2, i32 noundef %.0.i.i)
  %.not6.i = icmp eq i32 %44, 0
  br i1 %.not6.i, label %45, label %.thread.i

45:                                               ; preds = %43
  %46 = call fastcc i32 @systemd_timer_enable_unit(i32 noundef 1, i32 noundef 1, i32 noundef %.0.i.i)
  %.not9.i = icmp eq i32 %46, 0
  br i1 %.not9.i, label %48, label %.thread.i

.thread.critedge.i:                               ; preds = %_.exit22.i.i, %_.exit19.i.i, %18, %_.exit.i.i
  call void @free(ptr noundef %10) #21
  call void @free(ptr noundef %11) #21
  br label %.thread.i

.thread.i:                                        ; preds = %.thread.critedge.i, %45, %43, %systemd_timer_write_service_template.exit.i
  %47 = call fastcc i32 @systemd_timer_delete_units()
  br label %systemd_timer_setup_units.exit

48:                                               ; preds = %45
  call fastcc void @systemd_timer_delete_stale_timer_templates()
  br label %systemd_timer_setup_units.exit

49:                                               ; preds = %2
  %50 = tail call fastcc i32 @systemd_timer_delete_units()
  br label %systemd_timer_setup_units.exit

systemd_timer_setup_units.exit:                   ; preds = %48, %.thread.i, %49
  %.0 = phi i32 [ %50, %49 ], [ 0, %48 ], [ 1, %.thread.i ]
  ret i32 %.0
}